target datalayout = "e-m:e-p270:32:32-p271:32:32-p272:64:64-i64:64-i128:128-f80:128-n8:16:32:64-S128"
target triple = "x86_64-pc-linux-gnu"

%struct._packet_info = type { ptr, ptr, i32, i32, %struct.nstime_t, %struct.nstime_t, %struct.nstime_t, i8, ptr, ptr, ptr, ptr, %struct._address, %struct._address, %struct._address, %struct._address, %struct._address, %struct._address, i32, ptr, i8, [3 x i8], %struct.anon, i32, i32, i32, i32, ptr, i8, ptr, ptr, i16, i16, i32, i32, i16, i32, i32, ptr, ptr, ptr, i8, i8, i16, i16, i16, i32, i16, i16, ptr, ptr, ptr, ptr, ptr, i32, i32 }
%struct.nstime_t = type { i64, i32 }
%struct._address = type { i32, i32, ptr, ptr }
%struct.anon = type { i8, [3 x i8] }

@hf_ndmp_error = internal global i32 0, align 4
@hf_ndmp_data = internal global i32 0, align 4
@.str.749 = private unnamed_addr constant [16 x i8] c" NDMP Error:%s \00", align 1
@.str.750 = private unnamed_addr constant [28 x i8] c"Unknown NDMP error code %#x\00", align 1

; Function Attrs: null_pointer_is_valid sspstrong uwtable
define internal i32 @dissect_error(ptr noundef %0, i32 noundef %1, ptr noundef %2, ptr noundef %3, i32 noundef %4) #0 {
  %6 = alloca ptr, align 8
  %7 = alloca i32, align 4
  %8 = alloca ptr, align 8
  %9 = alloca ptr, align 8
  %10 = alloca i32, align 4
  %11 = alloca i32, align 4
  store ptr %0, ptr %6, align 8
  store i32 %1, ptr %7, align 4
  store ptr %2, ptr %8, align 8
  store ptr %3, ptr %9, align 8
  store i32 %4, ptr %10, align 4
  call void @llvm.lifetime.start.p0(i64 4, ptr %11) #9
  %12 = load ptr, ptr %6, align 8
  %13 = load i32, ptr %7, align 4
  %14 = call i32 @tvb_get_ntohl(ptr noundef %12, i32 noundef %13)
  store i32 %14, ptr %11, align 4
  %15 = load ptr, ptr %9, align 8
  %16 = load i32, ptr @hf_ndmp_error, align 4
  %17 = load ptr, ptr %6, align 8
  %18 = load i32, ptr %7, align 4
  %19 = call ptr @proto_tree_add_item(ptr noundef %15, i32 noundef %16, ptr noundef %17, i32 noundef %18, i32 noundef 4, i32 noundef 0)
  %20 = load i32, ptr %11, align 4
  %21 = icmp ne i32 %20, 0
  br i1 %21, label %22, label %28

22:                                               ; preds = %5
  %23 = load ptr, ptr %8, align 8
  %24 = getelementptr inbounds nuw %struct._packet_info, ptr %23, i32 0, i32 1
  %25 = load ptr, ptr %24, align 8
  %26 = load i32, ptr %11, align 4
  %27 = call ptr @val_to_str(i32 noundef %26, ptr noundef @error_vals, ptr noundef @.str.750)
  call void (ptr, i32, ptr, ...) @col_append_fstr(ptr noundef %25, i32 noundef 25, ptr noundef @.str.749, ptr noundef %27)
  br label %28

28:                                               ; preds = %22, %5
  %29 = load i32, ptr %7, align 4
  %30 = add i32 %29, 4
  store i32 %30, ptr %7, align 4
  %31 = load i32, ptr %7, align 4
  call void @llvm.lifetime.end.p0(i64 4, ptr %11) #9
  ret i32 %31
}

; Function Attrs: null_pointer_is_valid sspstrong uwtable
define internal i32 @dissect_tape_read_reply(ptr noundef %0, i32 noundef %1, ptr noundef %2, ptr noundef %3, i32 noundef %4) #0 {
  %6 = alloca ptr, align 8
  %7 = alloca i32, align 4
  %8 = alloca ptr, align 8
  %9 = alloca ptr, align 8
  %10 = alloca i32, align 4
  store ptr %0, ptr %6, align 8
  store i32 %1, ptr %7, align 4
  store ptr %2, ptr %8, align 8
  store ptr %3, ptr %9, align 8
  store i32 %4, ptr %10, align 4
  %11 = load ptr, ptr %6, align 8
  %12 = load i32, ptr %7, align 4
  %13 = load ptr, ptr %8, align 8
  %14 = load ptr, ptr %9, align 8
  %15 = load i32, ptr %10, align 4
  %16 = call i32 @dissect_error(ptr noundef %11, i32 noundef %12, ptr noundef %13, ptr noundef %14, i32 noundef %15)
  store i32 %16, ptr %7, align 4
  %17 = load ptr, ptr %6, align 8
  %18 = load ptr, ptr %9, align 8
  %19 = load i32, ptr @hf_ndmp_data, align 4
  %20 = load i32, ptr %7, align 4
  %21 = call i32 @dissect_rpc_data(ptr noundef %17, ptr noundef %18, i32 noundef %19, i32 noundef %20)
  store i32 %21, ptr %7, align 4
  %22 = load i32, ptr %7, align 4
  ret i32 %22
}